target datalayout = "e-m:e-p270:32:32-p271:32:32-p272:64:64-i64:64-i128:128-f80:128-n8:16:32:64-S128"
target triple = "x86_64-unknown-linux-gnu"

%"struct.google::SiteFlag" = type { ptr, ptr, i64, ptr }
%"class.folly::Optional.40" = type { %"struct.folly::Optional<unsigned long>::StorageTriviallyDestructible" }
%"struct.folly::Optional<unsigned long>::StorageTriviallyDestructible" = type <{ %union.anon.41, i8, [7 x i8] }>
%union.anon.41 = type { i64 }
%"class.std::chrono::time_point" = type { %"class.std::chrono::duration" }
%"class.std::chrono::duration" = type { i64 }
%"class.std::__shared_count" = type { ptr }
%"class.folly::HHWheelTimerBase<std::chrono::duration<long, std::ratio<1, 1000>>>::Callback" = type { ptr, %"class.boost::intrusive::list_base_hook", ptr, %"class.std::chrono::time_point", i32, %"class.std::shared_ptr" }
%"class.boost::intrusive::list_base_hook" = type { %"class.boost::intrusive::generic_hook" }
%"class.boost::intrusive::generic_hook" = type { %"struct.boost::intrusive::node_holder" }
%"struct.boost::intrusive::node_holder" = type { %"struct.boost::intrusive::list_node" }
%"struct.boost::intrusive::list_node" = type { ptr, ptr }
%"class.std::shared_ptr" = type { %"class.std::__shared_ptr" }
%"class.std::__shared_ptr" = type { ptr, %"class.std::__shared_count" }
%"class.std::chrono::duration.55" = type { i64 }
%"class.google::LogMessageVoidify" = type { i8 }
%"class.google::LogMessage" = type { ptr, ptr, %"struct.google::LogMessageTime" }
%"struct.google::LogMessageTime" = type { %struct.tm, i64, i32, i64 }
%struct.tm = type { i32, i32, i32, i32, i32, i32, i32, i32, i32, i64, ptr }
%"class.proxygen::HTTPSession::PingProber" = type <{ %"class.folly::HHWheelTimerBase<std::chrono::duration<long, std::ratio<1, 1000>>>::Callback", ptr, %"class.std::chrono::duration.55", %"class.std::chrono::duration.55", %"class.folly::Optional.40", i8, [7 x i8] }>

@_ZN3fLI7FLAGS_vE = external global i32, align 4
@.str = private unnamed_addr constant [137 x i8] c"generated/home/dtcxzyw/WorkSpace/Projects/compilers/llvm-opt-benchmark/bench/proxygen/proxygen/proxygen/lib/http/session/HTTPSession.cpp\00", align 1
@_ZZN8proxygen11HTTPSession10PingProber12cancelProbesEvE8vlocal__ = internal global %"struct.google::SiteFlag" zeroinitializer, align 8
@.str.196 = private unnamed_addr constant [29 x i8] c"Canceling active probe sess=\00", align 1

; Function Attrs: noreturn nounwind uwtable
define linkonce_odr hidden void @__clang_call_terminate(ptr noundef %0) #9 comdat {
  %2 = call ptr @__cxa_begin_catch(ptr %0) #3
  call void @_ZSt9terminatev() #30
  unreachable
}

; Function Attrs: mustprogress nounwind uwtable
define linkonce_odr void @_ZN5folly8OptionalImE28StorageTriviallyDestructible5clearEv(ptr noundef nonnull align 8 dereferenceable(9) %this) #5 comdat align 2 {
entry:
  %this.addr = alloca ptr, align 8
  store ptr %this, ptr %this.addr, align 8
  %this1 = load ptr, ptr %this.addr, align 8
  %hasValue = getelementptr inbounds %"struct.folly::Optional<unsigned long>::StorageTriviallyDestructible", ptr %this1, i32 0, i32 1
  store i8 0, ptr %hasValue, align 8
  ret void
}

; Function Attrs: mustprogress nounwind uwtable
define linkonce_odr noundef zeroext i1 @_ZNK5folly8OptionalImE9has_valueEv(ptr noundef nonnull align 8 dereferenceable(16) %this) #5 comdat align 2 {
entry:
  %this.addr = alloca ptr, align 8
  store ptr %this, ptr %this.addr, align 8
  %this1 = load ptr, ptr %this.addr, align 8
  %storage_ = getelementptr inbounds %"class.folly::Optional.40", ptr %this1, i32 0, i32 0
  %hasValue = getelementptr inbounds %"struct.folly::Optional<unsigned long>::StorageTriviallyDestructible", ptr %storage_, i32 0, i32 1
  %0 = load i8, ptr %hasValue, align 8
  %tobool = trunc i8 %0 to i1
  ret i1 %tobool
}

; Function Attrs: mustprogress nounwind uwtable
define linkonce_odr void @_ZN5folly8OptionalImE5resetEv(ptr noundef nonnull align 8 dereferenceable(16) %this) #5 comdat align 2 personality ptr @__gxx_personality_v0 {
entry:
  %this.addr = alloca ptr, align 8
  store ptr %this, ptr %this.addr, align 8
  %this1 = load ptr, ptr %this.addr, align 8
  %storage_ = getelementptr inbounds %"class.folly::Optional.40", ptr %this1, i32 0, i32 0
  invoke void @_ZN5folly8OptionalImE28StorageTriviallyDestructible5clearEv(ptr noundef nonnull align 8 dereferenceable(9) %storage_)
          to label %invoke.cont unwind label %terminate.lpad

invoke.cont:                                      ; preds = %entry
  ret void

terminate.lpad:                                   ; preds = %entry
  %0 = landingpad { ptr, i32 }
          catch ptr null
  %1 = extractvalue { ptr, i32 } %0, 0
  call void @__clang_call_terminate(ptr %1) #30
  unreachable
}

; Function Attrs: mustprogress nounwind uwtable
define linkonce_odr void @_ZN6google17LogMessageVoidifyanERSo(ptr noundef nonnull align 1 dereferenceable(1) %this, ptr noundef nonnull align 8 dereferenceable(8) %0) #5 comdat align 2 {
entry:
  %this.addr = alloca ptr, align 8
  %.addr = alloca ptr, align 8
  store ptr %this, ptr %this.addr, align 8
  store ptr %0, ptr %.addr, align 8
  ret void
}

; Function Attrs: mustprogress nounwind uwtable
define linkonce_odr void @_ZN6google17LogMessageVoidifyC2Ev(ptr noundef nonnull align 1 dereferenceable(1) %this) unnamed_addr #5 comdat align 2 {
entry:
  %this.addr = alloca ptr, align 8
  store ptr %this, ptr %this.addr, align 8
  ret void
}

; Function Attrs: mustprogress nounwind uwtable
define linkonce_odr noundef zeroext i1 @_ZNK5folly8OptionalImEcvbEv(ptr noundef nonnull align 8 dereferenceable(16) %this) #5 comdat align 2 {
entry:
  %this.addr = alloca ptr, align 8
  store ptr %this, ptr %this.addr, align 8
  %this1 = load ptr, ptr %this.addr, align 8
  %call = call noundef zeroext i1 @_ZNK5folly8OptionalImE9has_valueEv(ptr noundef nonnull align 8 dereferenceable(16) %this1) #3
  ret i1 %call
}

; Function Attrs: mustprogress uwtable
define void @_ZN8proxygen11HTTPSession10PingProber12cancelProbesEv(ptr noundef nonnull align 8 dereferenceable(105) %this) #4 align 2 personality ptr @__gxx_personality_v0 {
entry:
  %this.addr = alloca ptr, align 8
  %verbose_level__ = alloca i32, align 4
  %tmp = alloca i8, align 1
  %ref.tmp = alloca %"class.google::LogMessageVoidify", align 1
  %ref.tmp6 = alloca %"class.google::LogMessage", align 8
  %cleanup.cond = alloca i1, align 1
  %exn.slot = alloca ptr, align 8
  %ehselector.slot = alloca i32, align 4
  store ptr %this, ptr %this.addr, align 8
  %this1 = load ptr, ptr %this.addr, align 8
  %pingVal_ = getelementptr inbounds %"class.proxygen::HTTPSession::PingProber", ptr %this1, i32 0, i32 4
  %call = call noundef zeroext i1 @_ZNK5folly8OptionalImEcvbEv(ptr noundef nonnull align 8 dereferenceable(16) %pingVal_) #3
  br i1 %call, label %if.then, label %if.end

if.then:                                          ; preds = %entry
  store i32 4, ptr %verbose_level__, align 4
  %0 = load ptr, ptr @_ZZN8proxygen11HTTPSession10PingProber12cancelProbesEvE8vlocal__, align 8
  %cmp = icmp eq ptr %0, null
  store i1 false, ptr %cleanup.cond, align 1
  br i1 %cmp, label %cond.true, label %cond.false

cond.true:                                        ; preds = %if.then
  %1 = load i32, ptr %verbose_level__, align 4
  %call2 = call noundef zeroext i1 @_ZN6google11InitVLOG3__EPNS_8SiteFlagEPiPKci(ptr noundef @_ZZN8proxygen11HTTPSession10PingProber12cancelProbesEvE8vlocal__, ptr noundef @_ZN3fLI7FLAGS_vE, ptr noundef @.str, i32 noundef %1)
  br label %cond.end

cond.false:                                       ; preds = %if.then
  %2 = load ptr, ptr @_ZZN8proxygen11HTTPSession10PingProber12cancelProbesEvE8vlocal__, align 8
  %3 = load i32, ptr %2, align 4
  %4 = load i32, ptr %verbose_level__, align 4
  %cmp3 = icmp sge i32 %3, %4
  br label %cond.end

cond.end:                                         ; preds = %cond.false, %cond.true
  %cond = phi i1 [ %call2, %cond.true ], [ %cmp3, %cond.false ]
  %frombool = zext i1 %cond to i8
  store i8 %frombool, ptr %tmp, align 1
  %5 = load i8, ptr %tmp, align 1
  %tobool = trunc i8 %5 to i1
  br i1 %tobool, label %cond.false5, label %cond.true4

cond.true4:                                       ; preds = %cond.end
  br label %cond.end13

cond.false5:                                      ; preds = %cond.end
  call void @_ZN6google17LogMessageVoidifyC2Ev(ptr noundef nonnull align 1 dereferenceable(1) %ref.tmp)
  call void @_ZN6google10LogMessageC1EPKci(ptr noundef nonnull align 8 dereferenceable(96) %ref.tmp6, ptr noundef @.str, i32 noundef 2610)
  store i1 true, ptr %cleanup.cond, align 1
  %call7 = invoke noundef nonnull align 8 dereferenceable(8) ptr @_ZN6google10LogMessage6streamEv(ptr noundef nonnull align 8 dereferenceable(96) %ref.tmp6)
          to label %invoke.cont unwind label %lpad

invoke.cont:                                      ; preds = %cond.false5
  %call9 = invoke noundef nonnull align 8 dereferenceable(8) ptr @_ZStlsISt11char_traitsIcEERSt13basic_ostreamIcT_ES5_PKc(ptr noundef nonnull align 8 dereferenceable(8) %call7, ptr noundef @.str.196)
          to label %invoke.cont8 unwind label %lpad

invoke.cont8:                                     ; preds = %invoke.cont
  %session_ = getelementptr inbounds %"class.proxygen::HTTPSession::PingProber", ptr %this1, i32 0, i32 1
  %6 = load ptr, ptr %session_, align 8
  %call11 = invoke noundef nonnull align 8 dereferenceable(8) ptr @_ZN6wanglelsERSoRKNS_17ManagedConnectionE(ptr noundef nonnull align 8 dereferenceable(8) %call9, ptr noundef nonnull align 8 dereferenceable(208) %6)
          to label %invoke.cont10 unwind label %lpad

invoke.cont10:                                    ; preds = %invoke.cont8
  invoke void @_ZN6google17LogMessageVoidifyanERSo(ptr noundef nonnull align 1 dereferenceable(1) %ref.tmp, ptr noundef nonnull align 8 dereferenceable(8) %call11)
          to label %invoke.cont12 unwind label %lpad

invoke.cont12:                                    ; preds = %invoke.cont10
  br label %cond.end13

cond.end13:                                       ; preds = %invoke.cont12, %cond.true4
  %cleanup.is_active = load i1, ptr %cleanup.cond, align 1
  br i1 %cleanup.is_active, label %cleanup.action, label %cleanup.done

cleanup.action:                                   ; preds = %cond.end13
  call void @_ZN6google10LogMessageD1Ev(ptr noundef nonnull align 8 dereferenceable(96) %ref.tmp6) #3
  br label %cleanup.done

cleanup.done:                                     ; preds = %cleanup.action, %cond.end13
  %pingVal_17 = getelementptr inbounds %"class.proxygen::HTTPSession::PingProber", ptr %this1, i32 0, i32 4
  call void @_ZN5folly8OptionalImE5resetEv(ptr noundef nonnull align 8 dereferenceable(16) %pingVal_17) #3
  br label %if.end

lpad:                                             ; preds = %invoke.cont10, %invoke.cont8, %invoke.cont, %cond.false5
  %7 = landingpad { ptr, i32 }
          cleanup
  %8 = extractvalue { ptr, i32 } %7, 0
  store ptr %8, ptr %exn.slot, align 8
  %9 = extractvalue { ptr, i32 } %7, 1
  store i32 %9, ptr %ehselector.slot, align 4
  %cleanup.is_active14 = load i1, ptr %cleanup.cond, align 1
  br i1 %cleanup.is_active14, label %cleanup.action15, label %cleanup.done16

cleanup.action15:                                 ; preds = %lpad
  call void @_ZN6google10LogMessageD1Ev(ptr noundef nonnull align 8 dereferenceable(96) %ref.tmp6) #3
  br label %cleanup.done16

cleanup.done16:                                   ; preds = %cleanup.action15, %lpad
  br label %eh.resume

if.end:                                           ; preds = %cleanup.done, %entry
  call void @_ZN5folly16HHWheelTimerBaseINSt6chrono8durationIlSt5ratioILl1ELl1000EEEEE8Callback13cancelTimeoutEv(ptr noundef nonnull align 8 dereferenceable(64) %this1)
  ret void

eh.resume:                                        ; preds = %cleanup.done16
  %exn = load ptr, ptr %exn.slot, align 8
  %sel = load i32, ptr %ehselector.slot, align 4
  %lpad.val = insertvalue { ptr, i32 } poison, ptr %exn, 0
  %lpad.val18 = insertvalue { ptr, i32 } %lpad.val, i32 %sel, 1
  resume { ptr, i32 } %lpad.val18
}