; Function Attrs: mustprogress uwtable
define void @_ZN8proxygen11HTTPSession10PingProber12cancelProbesEv(ptr noundef nonnull align 8 dereferenceable(105) %this) local_unnamed_addr #3 align 2 personality ptr @__gxx_personality_v0 {
entry:
  %ref.tmp6 = alloca %"class.google::LogMessage", align 8
  %hasValue.i.i = getelementptr inbounds i8, ptr %this, i64 96
  %0 = load i8, ptr %hasValue.i.i, align 8
  %1 = and i8 %0, 1
  %tobool.i.i.not = icmp eq i8 %1, 0
  br i1 %tobool.i.i.not, label %if.end, label %if.then

if.then:                                          ; preds = %entry
  %2 = load ptr, ptr @_ZZN8proxygen11HTTPSession10PingProber12cancelProbesEvE8vlocal__, align 8
  %cmp = icmp eq ptr %2, null
  br i1 %cmp, label %cond.true, label %cond.end

cond.true:                                        ; preds = %if.then
  %call2 = tail call noundef zeroext i1 @_ZN6google11InitVLOG3__EPNS_8SiteFlagEPiPKci(ptr noundef nonnull @_ZZN8proxygen11HTTPSession10PingProber12cancelProbesEvE8vlocal__, ptr noundef nonnull @_ZN3fLI7FLAGS_vE, ptr noundef nonnull @.str, i32 noundef 4)
  br i1 %call2, label %cond.false5, label %cleanup.done

cond.end:                                         ; preds = %if.then
  %3 = load i32, ptr %2, align 4
  %cmp3 = icmp sgt i32 %3, 3
  br i1 %cmp3, label %cond.false5, label %cleanup.done

cond.false5:                                      ; preds = %cond.true, %cond.end
  call void @_ZN6google10LogMessageC1EPKci(ptr noundef nonnull align 8 dereferenceable(96) %ref.tmp6, ptr noundef nonnull @.str, i32 noundef 2610)
  %call7 = invoke noundef nonnull align 8 dereferenceable(8) ptr @_ZN6google10LogMessage6streamEv(ptr noundef nonnull align 8 dereferenceable(96) %ref.tmp6)
          to label %invoke.cont unwind label %lpad

invoke.cont:                                      ; preds = %cond.false5
  %call9 = invoke noundef nonnull align 8 dereferenceable(8) ptr @_ZStlsISt11char_traitsIcEERSt13basic_ostreamIcT_ES5_PKc(ptr noundef nonnull align 8 dereferenceable(8) %call7, ptr noundef nonnull @.str.196)
          to label %invoke.cont8 unwind label %lpad

invoke.cont8:                                     ; preds = %invoke.cont
  %session_ = getelementptr inbounds i8, ptr %this, i64 64
  %4 = load ptr, ptr %session_, align 8
  %call11 = invoke noundef nonnull align 8 dereferenceable(8) ptr @_ZN6wanglelsERSoRKNS_17ManagedConnectionE(ptr noundef nonnull align 8 dereferenceable(8) %call9, ptr noundef nonnull align 8 dereferenceable(208) %4)
          to label %cleanup.action unwind label %lpad

cleanup.action:                                   ; preds = %invoke.cont8
  call void @_ZN6google10LogMessageD1Ev(ptr noundef nonnull align 8 dereferenceable(96) %ref.tmp6) #39
  br label %cleanup.done

cleanup.done:                                     ; preds = %cond.true, %cond.end, %cleanup.action
  store i8 0, ptr %hasValue.i.i, align 8
  br label %if.end

lpad:                                             ; preds = %invoke.cont8, %invoke.cont, %cond.false5
  %5 = landingpad { ptr, i32 }
          cleanup
  call void @_ZN6google10LogMessageD1Ev(ptr noundef nonnull align 8 dereferenceable(96) %ref.tmp6) #39
  resume { ptr, i32 } %5

if.end:                                           ; preds = %cleanup.done, %entry
  call void @_ZN5folly16HHWheelTimerBaseINSt6chrono8durationIlSt5ratioILl1ELl1000EEEEE8Callback13cancelTimeoutEv(ptr noundef nonnull align 8 dereferenceable(64) %this)
  ret void
}